; Function Attrs: mustprogress nofree norecurse nosync nounwind willreturn memory(read, inaccessiblemem: none) uwtable
define noundef double @_ZNK10open_spiel10battleship14BattleshipGame10MaxUtilityEv(ptr noundef nonnull readonly align 8 captures(none) dereferenceable(328) %0) unnamed_addr #5 align 2 {
  %2 = getelementptr inbounds nuw i8, ptr %0, i64 288
  %3 = load ptr, ptr %2, align 8
  %4 = getelementptr inbounds nuw i8, ptr %0, i64 296
  %5 = load ptr, ptr %4, align 8
  %.not11 = icmp eq ptr %3, %5
  br i1 %.not11, label %._crit_edge, label %.lr.ph

.lr.ph:                                           ; preds = %1, %.lr.ph
  %.013 = phi double [ %8, %.lr.ph ], [ 0.000000e+00, %1 ]
  %.sroa.08.012 = phi ptr [ %9, %.lr.ph ], [ %3, %1 ]
  %6 = getelementptr inbounds nuw i8, ptr %.sroa.08.012, i64 8
  %7 = load double, ptr %6, align 8
  %8 = fadd double %.013, %7
  %9 = getelementptr inbounds nuw i8, ptr %.sroa.08.012, i64 16
  %.not = icmp eq ptr %9, %5
  br i1 %.not, label %._crit_edge, label %.lr.ph

._crit_edge:                                      ; preds = %.lr.ph, %1
  %.0.lcssa = phi double [ 0.000000e+00, %1 ], [ %8, %.lr.ph ]
  %10 = getelementptr inbounds nuw i8, ptr %0, i64 320
  %11 = load double, ptr %10, align 8
  %12 = fcmp olt double %11, 0.000000e+00
  %13 = fsub double 1.000000e+00, %11
  %14 = fmul double %.0.lcssa, %13
  %.1 = select i1 %12, double %14, double %.0.lcssa
  ret double %.1
}